; Function Attrs: nofree norecurse nosync nounwind memory(readwrite, inaccessiblemem: none) uwtable
define void @Acb_NtkWindowUndo(ptr noundef readonly captures(none) %0, ptr noundef readonly captures(none) %1) local_unnamed_addr #9 {
  %3 = getelementptr i8, ptr %1, i64 4
  %.val8 = load i32, ptr %3, align 4, !tbaa !15
  %4 = icmp sgt i32 %.val8, 0
  br i1 %4, label %.lr.ph, label %.critedge

.lr.ph:                                           ; preds = %2
  %5 = getelementptr i8, ptr %1, i64 8
  %.val6 = load ptr, ptr %5, align 8, !tbaa !18
  %6 = getelementptr i8, ptr %0, i64 184
  %.val7 = load ptr, ptr %6, align 8, !tbaa !18
  br label %7

7:                                                ; preds = %.lr.ph, %7
  %indvars.iv = phi i64 [ 0, %.lr.ph ], [ %indvars.iv.next, %7 ]
  %8 = getelementptr inbounds nuw i32, ptr %.val6, i64 %indvars.iv
  %9 = load i32, ptr %8, align 4, !tbaa !19
  %10 = ashr i32 %9, 1
  %11 = sext i32 %10 to i64
  %12 = getelementptr inbounds i32, ptr %.val7, i64 %11
  store i32 -1, ptr %12, align 4, !tbaa !19
  %indvars.iv.next = add nuw nsw i64 %indvars.iv, 1
  %.val = load i32, ptr %3, align 4, !tbaa !15
  %13 = sext i32 %.val to i64
  %14 = icmp slt i64 %indvars.iv.next, %13
  br i1 %14, label %7, label %.critedge, !llvm.loop !53

.critedge:                                        ; preds = %7, %2
  ret void
}